target datalayout = "e-m:e-p270:32:32-p271:32:32-p272:64:64-i64:64-i128:128-f80:128-n8:16:32:64-S128"
target triple = "x86_64-pc-linux-gnu"

; Function Attrs: nounwind uwtable
define internal void @dequant_subband_int16_t_c(ptr noundef %0, ptr noundef %1, i64 noundef %2, i32 noundef %3, i32 noundef %4, i32 noundef %5, i32 noundef %6) #1 {
  %8 = alloca ptr, align 8
  %9 = alloca ptr, align 8
  %10 = alloca i64, align 8
  %11 = alloca i32, align 4
  %12 = alloca i32, align 4
  %13 = alloca i32, align 4
  %14 = alloca i32, align 4
  %15 = alloca i32, align 4
  %16 = alloca i32, align 4
  %17 = alloca i16, align 2
  %18 = alloca ptr, align 8
  %19 = alloca ptr, align 8
  store ptr %0, ptr %8, align 8, !tbaa !11
  store ptr %1, ptr %9, align 8, !tbaa !11
  store i64 %2, ptr %10, align 8, !tbaa !53
  store i32 %3, ptr %11, align 4, !tbaa !13
  store i32 %4, ptr %12, align 4, !tbaa !13
  store i32 %5, ptr %13, align 4, !tbaa !13
  store i32 %6, ptr %14, align 4, !tbaa !13
  call void @llvm.lifetime.start.p0(i64 4, ptr %15) #5
  call void @llvm.lifetime.start.p0(i64 4, ptr %16) #5
  store i32 0, ptr %16, align 4, !tbaa !13
  br label %20

20:                                               ; preds = %79, %7
  %21 = load i32, ptr %16, align 4, !tbaa !13
  %22 = load i32, ptr %13, align 4, !tbaa !13
  %23 = icmp slt i32 %21, %22
  br i1 %23, label %24, label %82

24:                                               ; preds = %20
  call void @llvm.lifetime.start.p0(i64 2, ptr %17) #5
  call void @llvm.lifetime.start.p0(i64 8, ptr %18) #5
  %25 = load ptr, ptr %8, align 8, !tbaa !11
  store ptr %25, ptr %18, align 8, !tbaa !21
  call void @llvm.lifetime.start.p0(i64 8, ptr %19) #5
  %26 = load ptr, ptr %9, align 8, !tbaa !11
  store ptr %26, ptr %19, align 8, !tbaa !21
  store i32 0, ptr %15, align 4, !tbaa !13
  br label %27

27:                                               ; preds = %67, %24
  %28 = load i32, ptr %15, align 4, !tbaa !13
  %29 = load i32, ptr %14, align 4, !tbaa !13
  %30 = icmp slt i32 %28, %29
  br i1 %30, label %31, label %70

31:                                               ; preds = %27
  %32 = load ptr, ptr %18, align 8, !tbaa !21
  %33 = getelementptr inbounds nuw i16, ptr %32, i32 1
  store ptr %33, ptr %18, align 8, !tbaa !21
  %34 = load i16, ptr %32, align 2, !tbaa !23
  store i16 %34, ptr %17, align 2, !tbaa !23
  %35 = load i16, ptr %17, align 2, !tbaa !23
  %36 = sext i16 %35 to i32
  %37 = icmp slt i32 %36, 0
  br i1 %37, label %38, label %49

38:                                               ; preds = %31
  %39 = load i16, ptr %17, align 2, !tbaa !23
  %40 = sext i16 %39 to i32
  %41 = sub i32 0, %40
  %42 = load i32, ptr %11, align 4, !tbaa !13
  %43 = mul i32 %41, %42
  %44 = load i32, ptr %12, align 4, !tbaa !13
  %45 = add i32 %43, %44
  %46 = lshr i32 %45, 2
  %47 = sub i32 0, %46
  %48 = trunc i32 %47 to i16
  store i16 %48, ptr %17, align 2, !tbaa !23
  br label %63

49:                                               ; preds = %31
  %50 = load i16, ptr %17, align 2, !tbaa !23
  %51 = sext i16 %50 to i32
  %52 = icmp sgt i32 %51, 0
  br i1 %52, label %53, label %62

53:                                               ; preds = %49
  %54 = load i16, ptr %17, align 2, !tbaa !23
  %55 = sext i16 %54 to i32
  %56 = load i32, ptr %11, align 4, !tbaa !13
  %57 = mul i32 %55, %56
  %58 = load i32, ptr %12, align 4, !tbaa !13
  %59 = add i32 %57, %58
  %60 = lshr i32 %59, 2
  %61 = trunc i32 %60 to i16
  store i16 %61, ptr %17, align 2, !tbaa !23
  br label %62

62:                                               ; preds = %53, %49
  br label %63

63:                                               ; preds = %62, %38
  %64 = load i16, ptr %17, align 2, !tbaa !23
  %65 = load ptr, ptr %19, align 8, !tbaa !21
  %66 = getelementptr inbounds nuw i16, ptr %65, i32 1
  store ptr %66, ptr %19, align 8, !tbaa !21
  store i16 %64, ptr %65, align 2, !tbaa !23
  br label %67

67:                                               ; preds = %63
  %68 = load i32, ptr %15, align 4, !tbaa !13
  %69 = add nsw i32 %68, 1
  store i32 %69, ptr %15, align 4, !tbaa !13
  br label %27, !llvm.loop !55

70:                                               ; preds = %27
  %71 = load i32, ptr %14, align 4, !tbaa !13
  %72 = shl i32 %71, 1
  %73 = load ptr, ptr %8, align 8, !tbaa !11
  %74 = sext i32 %72 to i64
  %75 = getelementptr inbounds i8, ptr %73, i64 %74
  store ptr %75, ptr %8, align 8, !tbaa !11
  %76 = load i64, ptr %10, align 8, !tbaa !53
  %77 = load ptr, ptr %9, align 8, !tbaa !11
  %78 = getelementptr inbounds i8, ptr %77, i64 %76
  store ptr %78, ptr %9, align 8, !tbaa !11
  call void @llvm.lifetime.end.p0(i64 8, ptr %19) #5
  call void @llvm.lifetime.end.p0(i64 8, ptr %18) #5
  call void @llvm.lifetime.end.p0(i64 2, ptr %17) #5
  br label %79

79:                                               ; preds = %70
  %80 = load i32, ptr %16, align 4, !tbaa !13
  %81 = add nsw i32 %80, 1
  store i32 %81, ptr %16, align 4, !tbaa !13
  br label %20, !llvm.loop !56

82:                                               ; preds = %20
  call void @llvm.lifetime.end.p0(i64 4, ptr %16) #5
  call void @llvm.lifetime.end.p0(i64 4, ptr %15) #5
  ret void
}