; Function Attrs: nofree norecurse nosync nounwind memory(argmem: readwrite) uwtable
define internal void @dequant_subband_int16_t_c(ptr noundef readonly captures(none) %0, ptr noundef writeonly captures(none) %1, i64 noundef %2, i32 noundef %3, i32 noundef %4, i32 noundef %5, i32 noundef %6) #1 {
  %8 = icmp sgt i32 %5, 0
  br i1 %8, label %.preheader.lr.ph, label %._crit_edge36

.preheader.lr.ph:                                 ; preds = %7
  %9 = icmp sgt i32 %6, 0
  %10 = shl i32 %6, 1
  %11 = sext i32 %10 to i64
  br i1 %9, label %.preheader.us, label %._crit_edge36

.preheader.us:                                    ; preds = %.preheader.lr.ph, %._crit_edge.us
  %.02435.us = phi i32 [ %34, %._crit_edge.us ], [ 0, %.preheader.lr.ph ]
  %.02634.us = phi ptr [ %32, %._crit_edge.us ], [ %0, %.preheader.lr.ph ]
  %.02733.us = phi ptr [ %33, %._crit_edge.us ], [ %1, %.preheader.lr.ph ]
  br label %12

12:                                               ; preds = %.preheader.us, %29
  %.032.us = phi ptr [ %.02733.us, %.preheader.us ], [ %30, %29 ]
  %.02231.us = phi ptr [ %.02634.us, %.preheader.us ], [ %13, %29 ]
  %.02530.us = phi i32 [ 0, %.preheader.us ], [ %31, %29 ]
  %13 = getelementptr inbounds nuw i8, ptr %.02231.us, i64 2
  %14 = load i16, ptr %.02231.us, align 2, !tbaa !17
  %15 = sext i16 %14 to i32
  %16 = icmp slt i16 %14, 0
  br i1 %16, label %23, label %17

17:                                               ; preds = %12
  %.not.us = icmp eq i16 %14, 0
  br i1 %.not.us, label %29, label %18

18:                                               ; preds = %17
  %19 = mul i32 %3, %15
  %20 = add i32 %19, %4
  %21 = lshr i32 %20, 2
  %22 = trunc i32 %21 to i16
  br label %29

23:                                               ; preds = %12
  %24 = mul i32 %3, %15
  %25 = sub i32 %4, %24
  %26 = lshr i32 %25, 2
  %27 = trunc i32 %26 to i16
  %28 = sub i16 0, %27
  br label %29

29:                                               ; preds = %23, %18, %17
  %.023.us = phi i16 [ %28, %23 ], [ %22, %18 ], [ 0, %17 ]
  %30 = getelementptr inbounds nuw i8, ptr %.032.us, i64 2
  store i16 %.023.us, ptr %.032.us, align 2, !tbaa !17
  %31 = add nuw nsw i32 %.02530.us, 1
  %exitcond.not = icmp eq i32 %31, %6
  br i1 %exitcond.not, label %._crit_edge.us, label %12, !llvm.loop !47

._crit_edge.us:                                   ; preds = %29
  %32 = getelementptr inbounds i8, ptr %.02634.us, i64 %11
  %33 = getelementptr inbounds i8, ptr %.02733.us, i64 %2
  %34 = add nuw nsw i32 %.02435.us, 1
  %exitcond38.not = icmp eq i32 %34, %5
  br i1 %exitcond38.not, label %._crit_edge36, label %.preheader.us, !llvm.loop !48

._crit_edge36:                                    ; preds = %._crit_edge.us, %.preheader.lr.ph, %7
  ret void
}